ccopy_reg
_reconstructor
p1
(cutils.send_mail.send_email
EmailMessage
p2
c__builtin__
object
p3
NtRp4
(dp5
S'body'
p6
S'TRACEBACK:\nTraceback (most recent call last):\n  File "/Users/peterbe/virtualenvs/tornado_gkc/lib/python2.6/site-packages/tornado/web.py", line 927, in _execute\n    getattr(self, self.request.method.lower())(*args, **kwargs)\n  File "/Users/peterbe/dev/TORNADO/tornado_gkc/apps/main/handlers.py", line 327, in get\n    self.render("home.html", **options)\n  File "/Users/peterbe/virtualenvs/tornado_gkc/lib/python2.6/site-packages/tornado/web.py", line 451, in render\n    html = self.render_string(template_name, **kwargs)\n  File "/Users/peterbe/virtualenvs/tornado_gkc/lib/python2.6/site-packages/tornado/web.py", line 562, in render_string\n    return t.generate(**args)\n  File "/Users/peterbe/virtualenvs/tornado_gkc/lib/python2.6/site-packages/tornado/template.py", line 147, in generate\n    return execute()\n  File "<template home.html>", line 176, in _execute\n  File "/Users/peterbe/virtualenvs/tornado_gkc/lib/python2.6/site-packages/tornado/web.py", line 976, in render\n    rendered = self._active_modules[name].render(*args, **kwargs)\n  File "/Users/peterbe/dev/TORNADO/tornado_gkc/apps/main/ui_modules.py", line 30, in render\n    debug=self.handler.application.settings[\'debug\']\n  File "/Users/peterbe/virtualenvs/tornado_gkc/lib/python2.6/site-packages/tornado/web.py", line 1624, in render_string\n    return self.handler.render_string(path, **kwargs)\n  File "/Users/peterbe/virtualenvs/tornado_gkc/lib/python2.6/site-packages/tornado/web.py", line 562, in render_string\n    return t.generate(**args)\n  File "/Users/peterbe/virtualenvs/tornado_gkc/lib/python2.6/site-packages/tornado/template.py", line 147, in generate\n    return execute()\n  File "<template modules/settings.html>", line 9, in _execute\n  File "/Users/peterbe/virtualenvs/tornado_gkc/lib/python2.6/site-packages/tornado/web.py", line 976, in render\n    rendered = self._active_modules[name].render(*args, **kwargs)\n  File "/Users/peterbe/dev/TORNADO/tornado_gkc/utils/tornado_static.py", line 146, in render\n    verbose=1 or self.handler.settings.get(\'debug\', False))\n  File "/Users/peterbe/dev/TORNADO/tornado_gkc/utils/tornado_static.py", line 301, in run_uglify_js_compiler\n    r = _run_uglify_js_compiler(code, jar_location)\nNameError: global name \'jar_location\' is not defined\n\nREQUEST ARGUMENTS:\n{}\n\nCOOKIES:\n  user: \'4db72d60df70556b0500000c\'\n\nREQUEST:\n  full_url: \'http://gkc/\'\n  protocol: \'http\'\n  query: \'\'\n  remote_ip: \'127.0.0.1\'\n  request_time: 2.3128190040588379\n  uri: \'/\'\n  version: \'HTTP/1.0\'\n\nGIT REVISION:  2011-07-10 16:21:59\n\nHEADERS:\n{\'Accept\': \'text/html,application/xhtml+xml,application/xml;q=0.9,*/*;q=0.8\',\n \'Accept-Charset\': \'ISO-8859-1,utf-8;q=0.7,*;q=0.3\',\n \'Accept-Encoding\': \'gzip,deflate,sdch\',\n \'Accept-Language\': \'en-US,en;q=0.8\',\n \'Connection\': \'close\',\n \'Cookie\': \'user=NGRiNzJkNjBkZjcwNTU2YjA1MDAwMDBj|1309622586|b2aa77afb86a85b55e63a65d79999bb1850bebc3\',\n \'Host\': \'gkc\',\n \'If-None-Match\': \'"fce9f55202560659b7c1554347f6f1892f4ebe4d"\',\n \'Referer\': \'http://gkc/play/battle\',\n \'User-Agent\': \'Mozilla/5.0 (Macintosh; Intel Mac OS X 10_6_8) AppleWebKit/534.30 (KHTML, like Gecko) Chrome/12.0.742.112 Safari/534.30\',\n \'X-Scheme\': \'http\'}\n'
p7
sS'extra_headers'
p8
(dp9
sS'attachments'
p10
(lp11
sS'from_email'
p12
S'webmaster@kwissle.com'
p13
sS'to'
p14
(lp15
S'peterbe@gmail.com'
p16
asS'connection'
p17
g1
(cutils.send_mail.backends.pickle
EmailBackend
p18
g3
NtRp19
(dp20
S'fail_silently'
p21
I00
sS'protocol'
p22
I0
sS'location'
p23
S'/Users/peterbe/dev/TORNADO/tornado_gkc/utils/send_mail/pickled_messages'
p24
sbsS'bcc'
p25
(lp26
sS'subject'
p27
S'NameError("global name \'jar_location\' is not defined",) on /'
p28
sb.