ccopy_reg
_reconstructor
p1
(cutils.send_mail.send_email
EmailMessage
p2
c__builtin__
object
p3
NtRp4
(dp5
S'body'
p6
S'TRACEBACK:\nTraceback (most recent call last):\n  File "/Users/peterbe/virtualenvs/tornado_gkc/lib/python2.6/site-packages/tornado/web.py", line 972, in _execute\n    getattr(self, self.request.method.lower())(*args, **kwargs)\n  File "/Users/peterbe/dev/TORNADO/tornado_gkc/apps/main/handlers.py", line 369, in get\n    self.render("home.html", **options)\n  File "/Users/peterbe/virtualenvs/tornado_gkc/lib/python2.6/site-packages/tornado/web.py", line 459, in render\n    html = self.render_string(template_name, **kwargs)\n  File "/Users/peterbe/virtualenvs/tornado_gkc/lib/python2.6/site-packages/tornado/web.py", line 570, in render_string\n    return t.generate(**args)\n  File "/Users/peterbe/virtualenvs/tornado_gkc/lib/python2.6/site-packages/tornado/template.py", line 148, in generate\n    return execute()\n  File "<template home.html>", line 16, in _execute\n  File "/Users/peterbe/virtualenvs/tornado_gkc/lib/python2.6/site-packages/tornado/web.py", line 1023, in render\n    rendered = self._active_modules[name].render(*args, **kwargs)\n  File "/Users/peterbe/dev/TORNADO/tornado_gkc/utils/tornado_static.py", line 267, in render\n    url = super(Static, self).render(*static_urls)\n  File "/Users/peterbe/dev/TORNADO/tornado_gkc/utils/tornado_static.py", line 165, in render\n    os.path.dirname(old_paths[full_path])\n  File "/Users/peterbe/dev/TORNADO/tornado_gkc/utils/tornado_static.py", line 240, in _replace_css_images_with_static_urls\n    css_code = _regex.sub(replacer, css_code)\n  File "/Users/peterbe/dev/TORNADO/tornado_gkc/utils/tornado_static.py", line 237, in replacer\n    new_filename = self.handler.static_url(os.path.join(rel_dir, filename))\n  File "/Users/peterbe/dev/TORNADO/tornado_gkc/apps/main/handlers.py", line 64, in static_url\n    timestamps[abs_path] = os.stat(abs_path)[stat.ST_MTIME]\nNameError: global name \'stat\' is not defined\n\nREQUEST ARGUMENTS:\n{}\n\nCOOKIES:\n  __utma: None\n  __utmz: None\n  __utmc: None\n  user: \'4d9a04d9df7055583a000000\'\n  _xsrf: None\n\nREQUEST:\n  full_url: \'http://gkc/\'\n  protocol: \'http\'\n  query: \'\'\n  remote_ip: \'127.0.0.1\'\n  request_time: 0.58024311065673828\n  uri: \'/\'\n  version: \'HTTP/1.0\'\n\nGIT REVISION:  2011-07-29 00:39:43\n\nHEADERS:\n{\'Accept\': \'text/html,application/xhtml+xml,application/xml;q=0.9,*/*;q=0.8\',\n \'Accept-Charset\': \'ISO-8859-1,utf-8;q=0.7,*;q=0.7\',\n \'Accept-Encoding\': \'gzip, deflate\',\n \'Accept-Language\': \'en-us,en;q=0.5\',\n \'Connection\': \'close\',\n \'Cookie\': \'user=NGQ5YTA0ZDlkZjcwNTU1ODNhMDAwMDAw|1311198963|5e7d3e6a665b9aed013701a59086945881d9a69c; __utma=47187633.1934149131.1311670837.1311670837.1311677242.2; __utmz=47187633.1311670837.1.1.utmcsr=(direct)|utmccn=(direct)|utmcmd=(none); _xsrf=6620e5a0a5c54cf5b343994f72a2bca4; __utmc=47187633\',\n \'Host\': \'gkc\',\n \'User-Agent\': \'Mozilla/5.0 (Macintosh; Intel Mac OS X 10.6; rv:5.0.1) Gecko/20100101 Firefox/5.0.1\',\n \'X-Scheme\': \'http\'}\n'
p7
sS'extra_headers'
p8
(dp9
sS'attachments'
p10
(lp11
sS'from_email'
p12
S'webmaster@kwissle.com'
p13
sS'to'
p14
(lp15
S'peterbe@gmail.com'
p16
asS'connection'
p17
g1
(cutils.send_mail.backends.pickle
EmailBackend
p18
g3
NtRp19
(dp20
S'fail_silently'
p21
I00
sS'protocol'
p22
I0
sS'location'
p23
S'/Users/peterbe/dev/TORNADO/tornado_gkc/utils/send_mail/pickled_messages'
p24
sbsS'bcc'
p25
(lp26
sS'subject'
p27
S'NameError("global name \'stat\' is not defined",) on /'
p28
sb.