ccopy_reg
_reconstructor
p1
(cutils.send_mail.send_email
EmailMessage
p2
c__builtin__
object
p3
NtRp4
(dp5
S'body'
p6
S'TRACEBACK:\nTraceback (most recent call last):\n  File "/Users/peterbe/virtualenvs/tornado_gkc/lib/python2.6/site-packages/tornado/web.py", line 972, in _execute\n    getattr(self, self.request.method.lower())(*args, **kwargs)\n  File "/Users/peterbe/dev/TORNADO/tornado_gkc/apps/main/handlers.py", line 843, in get\n    output, timestamp = _CACHED_SITEMAP_DATA\nUnboundLocalError: local variable \'_CACHED_SITEMAP_DATA\' referenced before assignment\n\nREQUEST ARGUMENTS:\n{}\n\nCOOKIES:\n  _xsrf: None\n  user: \'4d9a04d9df7055583a000000\'\n\nREQUEST:\n  full_url: \'http://gkc/sitemap.xml\'\n  protocol: \'http\'\n  query: \'\'\n  remote_ip: \'127.0.0.1\'\n  request_time: 0.0019500255584716797\n  uri: \'/sitemap.xml\'\n  version: \'HTTP/1.0\'\n\nGIT REVISION:  2011-08-05 14:26:34\n\nHEADERS:\n{\'Accept\': \'text/html,application/xhtml+xml,application/xml;q=0.9,*/*;q=0.8\',\n \'Accept-Charset\': \'ISO-8859-1,utf-8;q=0.7,*;q=0.7\',\n \'Accept-Encoding\': \'gzip, deflate\',\n \'Accept-Language\': \'en-us,en;q=0.5\',\n \'Cache-Control\': \'max-age=0\',\n \'Connection\': \'close\',\n \'Cookie\': \'user=NGQ5YTA0ZDlkZjcwNTU1ODNhMDAwMDAw|1312546139|f6434780157e6f3e53e71ad0f73d6797744d4921; _xsrf=b618d6941aa7409f97df1e28b216c3ff\',\n \'Host\': \'gkc\',\n \'If-None-Match\': \'"e6878db28125e9c31643727f857f5ca840da1358"\',\n \'User-Agent\': \'Mozilla/5.0 (Macintosh; Intel Mac OS X 10.6; rv:5.0.1) Gecko/20100101 Firefox/5.0.1\',\n \'X-Scheme\': \'http\'}\n'
p7
sS'extra_headers'
p8
(dp9
sS'attachments'
p10
(lp11
sS'from_email'
p12
S'webmaster@kwissle.com'
p13
sS'to'
p14
(lp15
S'peterbe@gmail.com'
p16
asS'connection'
p17
g1
(cutils.send_mail.backends.pickle
EmailBackend
p18
g3
NtRp19
(dp20
S'fail_silently'
p21
I00
sS'protocol'
p22
I0
sS'location'
p23
S'/Users/peterbe/dev/TORNADO/tornado_gkc/utils/send_mail/pickled_messages'
p24
sbsS'bcc'
p25
(lp26
sS'subject'
p27
S'UnboundLocalError("local variable \'_CACHED_SITEMAP_DATA\' referenced before assignment",) on /sitemap.xml'
p28
sb.